target datalayout = "e-m:e-p270:32:32-p271:32:32-p272:64:64-i64:64-i128:128-f80:128-n8:16:32:64-S128"
target triple = "x86_64-pc-linux-gnu"

%class.btGearConstraint = type { %class.btTypedConstraint, %class.btVector3, %class.btVector3, i8, float }
%class.btTypedConstraint = type { ptr, %struct.btTypedObject, i32, %union.anon.0, float, i8, i8, i32, ptr, ptr, float, float, ptr }
%struct.btTypedObject = type { i32 }
%union.anon.0 = type { ptr }
%class.btVector3 = type { [4 x float] }

; Function Attrs: mustprogress uwtable
define dso_local void @_ZN16btGearConstraintC2ER11btRigidBodyS1_RK9btVector3S4_f(ptr noundef nonnull align 8 dereferenceable(112) %0, ptr noundef nonnull align 8 dereferenceable(744) %1, ptr noundef nonnull align 8 dereferenceable(744) %2, ptr noundef nonnull align 4 dereferenceable(16) %3, ptr noundef nonnull align 4 dereferenceable(16) %4, float noundef %5) unnamed_addr #2 align 2 {
  %7 = alloca ptr, align 8
  %8 = alloca ptr, align 8
  %9 = alloca ptr, align 8
  %10 = alloca ptr, align 8
  %11 = alloca ptr, align 8
  %12 = alloca float, align 4
  store ptr %0, ptr %7, align 8, !tbaa !12
  store ptr %1, ptr %8, align 8, !tbaa !14
  store ptr %2, ptr %9, align 8, !tbaa !14
  store ptr %3, ptr %10, align 8, !tbaa !16
  store ptr %4, ptr %11, align 8, !tbaa !16
  store float %5, ptr %12, align 4, !tbaa !18
  %13 = load ptr, ptr %7, align 8
  %14 = load ptr, ptr %8, align 8, !tbaa !14
  %15 = load ptr, ptr %9, align 8, !tbaa !14
  call void @_ZN17btTypedConstraintC2E21btTypedConstraintTypeR11btRigidBodyS2_(ptr noundef nonnull align 8 dereferenceable(72) %13, i32 noundef 10, ptr noundef nonnull align 8 dereferenceable(744) %14, ptr noundef nonnull align 8 dereferenceable(744) %15)
  store ptr getelementptr inbounds inrange(-16, 88) ({ [13 x ptr] }, ptr @_ZTV16btGearConstraint, i32 0, i32 0, i32 2), ptr %13, align 8, !tbaa !20
  %16 = getelementptr inbounds nuw %class.btGearConstraint, ptr %13, i32 0, i32 1
  %17 = load ptr, ptr %10, align 8, !tbaa !16
  call void @llvm.memcpy.p0.p0.i64(ptr align 8 %16, ptr align 4 %17, i64 16, i1 false), !tbaa.struct !22
  %18 = getelementptr inbounds nuw %class.btGearConstraint, ptr %13, i32 0, i32 2
  %19 = load ptr, ptr %11, align 8, !tbaa !16
  call void @llvm.memcpy.p0.p0.i64(ptr align 8 %18, ptr align 4 %19, i64 16, i1 false), !tbaa.struct !22
  %20 = getelementptr inbounds nuw %class.btGearConstraint, ptr %13, i32 0, i32 4
  %21 = load float, ptr %12, align 4, !tbaa !18
  store float %21, ptr %20, align 4, !tbaa !23
  ret void
}