; Function Attrs: mustprogress uwtable
define dso_local void @_ZN16btGearConstraintC2ER11btRigidBodyS1_RK9btVector3S4_f(ptr noundef nonnull align 8 dereferenceable(112) %0, ptr noundef nonnull align 8 dereferenceable(744) %1, ptr noundef nonnull align 8 dereferenceable(744) %2, ptr noundef nonnull readonly align 4 captures(none) dereferenceable(16) %3, ptr noundef nonnull readonly align 4 captures(none) dereferenceable(16) %4, float noundef %5) unnamed_addr #0 align 2 {
  tail call void @_ZN17btTypedConstraintC2E21btTypedConstraintTypeR11btRigidBodyS2_(ptr noundef nonnull align 8 dereferenceable(72) %0, i32 noundef 10, ptr noundef nonnull align 8 dereferenceable(744) %1, ptr noundef nonnull align 8 dereferenceable(744) %2)
  store ptr getelementptr inbounds nuw inrange(-16, 88) (i8, ptr @_ZTV16btGearConstraint, i64 16), ptr %0, align 8, !tbaa !4
  %7 = getelementptr inbounds nuw i8, ptr %0, i64 72
  tail call void @llvm.memcpy.p0.p0.i64(ptr noundef nonnull align 8 dereferenceable(16) %7, ptr noundef nonnull align 4 dereferenceable(16) %3, i64 16, i1 false), !tbaa.struct !7
  %8 = getelementptr inbounds nuw i8, ptr %0, i64 88
  tail call void @llvm.memcpy.p0.p0.i64(ptr noundef nonnull align 8 dereferenceable(16) %8, ptr noundef nonnull align 4 dereferenceable(16) %4, i64 16, i1 false), !tbaa.struct !7
  %9 = getelementptr inbounds nuw i8, ptr %0, i64 108
  store float %5, ptr %9, align 4, !tbaa !10
  ret void
}